target datalayout = "e-m:e-p270:32:32-p271:32:32-p272:64:64-i64:64-i128:128-f80:128-n8:16:32:64-S128"
target triple = "x86_64-pc-linux-gnu"

%"class.cv::Mat" = type { i32, i32, i32, i32, ptr, ptr, ptr, ptr, ptr, ptr, %"struct.cv::MatSize", %"struct.cv::MatStep" }
%"struct.cv::MatSize" = type { ptr }
%"struct.cv::MatStep" = type { ptr, [2 x i64] }
%"struct.cv::ml::TreeParams" = type <{ i8, i8, i8, [5 x i8], %"class.cv::Mat", i32, i32, i32, i32, float, [4 x i8] }>
%"class.std::vector.5" = type { %"struct.std::_Vector_base.6" }
%"struct.std::_Vector_base.6" = type { %"struct.std::_Vector_base<int, std::allocator<int>>::_Vector_impl" }
%"struct.std::_Vector_base<int, std::allocator<int>>::_Vector_impl" = type { %"struct.std::_Vector_base<int, std::allocator<int>>::_Vector_impl_data" }
%"struct.std::_Vector_base<int, std::allocator<int>>::_Vector_impl_data" = type { ptr, ptr, ptr }
%"class.std::__shared_count" = type { ptr }
%"class.cv::ml::DTreesImpl" = type { %"class.cv::ml::DTrees", %"struct.cv::ml::TreeParams", %"class.std::vector.5", %"class.std::vector.5", %"class.std::vector.18", %"class.std::vector.23", %"class.std::vector.5", %"class.std::vector.5", %"class.std::vector.28", %"class.std::vector.33", %"class.std::vector.5", %"class.std::vector.5", %"class.std::vector.38", %"class.std::vector.5", i8, %"struct.cv::Ptr.43" }
%"class.cv::ml::DTrees" = type { %"class.cv::ml::StatModel" }
%"class.cv::ml::StatModel" = type { %"class.cv::Algorithm" }
%"class.cv::Algorithm" = type { ptr }
%"class.std::vector.18" = type { %"struct.std::_Vector_base.19" }
%"struct.std::_Vector_base.19" = type { %"struct.std::_Vector_base<unsigned char, std::allocator<unsigned char>>::_Vector_impl" }
%"struct.std::_Vector_base<unsigned char, std::allocator<unsigned char>>::_Vector_impl" = type { %"struct.std::_Vector_base<unsigned char, std::allocator<unsigned char>>::_Vector_impl_data" }
%"struct.std::_Vector_base<unsigned char, std::allocator<unsigned char>>::_Vector_impl_data" = type { ptr, ptr, ptr }
%"class.std::vector.23" = type { %"struct.std::_Vector_base.24" }
%"struct.std::_Vector_base.24" = type { %"struct.std::_Vector_base<cv::Vec<int, 2>, std::allocator<cv::Vec<int, 2>>>::_Vector_impl" }
%"struct.std::_Vector_base<cv::Vec<int, 2>, std::allocator<cv::Vec<int, 2>>>::_Vector_impl" = type { %"struct.std::_Vector_base<cv::Vec<int, 2>, std::allocator<cv::Vec<int, 2>>>::_Vector_impl_data" }
%"struct.std::_Vector_base<cv::Vec<int, 2>, std::allocator<cv::Vec<int, 2>>>::_Vector_impl_data" = type { ptr, ptr, ptr }
%"class.std::vector.28" = type { %"struct.std::_Vector_base.29" }
%"struct.std::_Vector_base.29" = type { %"struct.std::_Vector_base<cv::ml::DTrees::Node, std::allocator<cv::ml::DTrees::Node>>::_Vector_impl" }
%"struct.std::_Vector_base<cv::ml::DTrees::Node, std::allocator<cv::ml::DTrees::Node>>::_Vector_impl" = type { %"struct.std::_Vector_base<cv::ml::DTrees::Node, std::allocator<cv::ml::DTrees::Node>>::_Vector_impl_data" }
%"struct.std::_Vector_base<cv::ml::DTrees::Node, std::allocator<cv::ml::DTrees::Node>>::_Vector_impl_data" = type { ptr, ptr, ptr }
%"class.std::vector.33" = type { %"struct.std::_Vector_base.34" }
%"struct.std::_Vector_base.34" = type { %"struct.std::_Vector_base<cv::ml::DTrees::Split, std::allocator<cv::ml::DTrees::Split>>::_Vector_impl" }
%"struct.std::_Vector_base<cv::ml::DTrees::Split, std::allocator<cv::ml::DTrees::Split>>::_Vector_impl" = type { %"struct.std::_Vector_base<cv::ml::DTrees::Split, std::allocator<cv::ml::DTrees::Split>>::_Vector_impl_data" }
%"struct.std::_Vector_base<cv::ml::DTrees::Split, std::allocator<cv::ml::DTrees::Split>>::_Vector_impl_data" = type { ptr, ptr, ptr }
%"class.std::vector.38" = type { %"struct.std::_Vector_base.39" }
%"struct.std::_Vector_base.39" = type { %"struct.std::_Vector_base<float, std::allocator<float>>::_Vector_impl" }
%"struct.std::_Vector_base<float, std::allocator<float>>::_Vector_impl" = type { %"struct.std::_Vector_base<float, std::allocator<float>>::_Vector_impl_data" }
%"struct.std::_Vector_base<float, std::allocator<float>>::_Vector_impl_data" = type { ptr, ptr, ptr }
%"struct.cv::Ptr.43" = type { %"class.std::shared_ptr.44" }
%"class.std::shared_ptr.44" = type { %"class.std::__shared_ptr.45" }
%"class.std::__shared_ptr.45" = type { ptr, %"class.std::__shared_count" }

; Function Attrs: inlinehint mustprogress uwtable
define linkonce_odr hidden noundef nonnull align 8 dereferenceable(124) ptr @_ZN2cv2ml10TreeParamsaSERKS1_(ptr noundef nonnull align 8 dereferenceable(124) %0, ptr noundef nonnull align 8 dereferenceable(124) %1) #9 comdat align 2 {
  %3 = alloca ptr, align 8
  %4 = alloca ptr, align 8
  store ptr %0, ptr %3, align 8, !tbaa !3
  store ptr %1, ptr %4, align 8, !tbaa !3
  %5 = load ptr, ptr %3, align 8
  %6 = getelementptr inbounds nuw %"struct.cv::ml::TreeParams", ptr %5, i32 0, i32 0
  %7 = load ptr, ptr %4, align 8
  %8 = getelementptr inbounds nuw %"struct.cv::ml::TreeParams", ptr %7, i32 0, i32 0
  call void @llvm.memcpy.p0.p0.i64(ptr align 8 %6, ptr align 8 %8, i64 3, i1 false)
  %9 = getelementptr inbounds nuw %"struct.cv::ml::TreeParams", ptr %5, i32 0, i32 4
  %10 = load ptr, ptr %4, align 8, !tbaa !3
  %11 = getelementptr inbounds nuw %"struct.cv::ml::TreeParams", ptr %10, i32 0, i32 4
  %12 = call noundef nonnull align 8 dereferenceable(96) ptr @_ZN2cv3MataSERKS0_(ptr noundef nonnull align 8 dereferenceable(96) %9, ptr noundef nonnull align 8 dereferenceable(96) %11)
  %13 = getelementptr inbounds nuw %"struct.cv::ml::TreeParams", ptr %5, i32 0, i32 5
  %14 = load ptr, ptr %4, align 8
  %15 = getelementptr inbounds nuw %"struct.cv::ml::TreeParams", ptr %14, i32 0, i32 5
  call void @llvm.memcpy.p0.p0.i64(ptr align 8 %13, ptr align 8 %15, i64 20, i1 false)
  ret ptr %5
}

; Function Attrs: mustprogress uwtable
define hidden void @_ZN2cv2ml10DTreesImpl10setDParamsERKNS0_10TreeParamsE(ptr noundef nonnull align 8 dereferenceable(448) %0, ptr noundef nonnull align 8 dereferenceable(124) %1) unnamed_addr #4 align 2 {
  %3 = alloca ptr, align 8
  %4 = alloca ptr, align 8
  store ptr %0, ptr %3, align 8, !tbaa !117
  store ptr %1, ptr %4, align 8, !tbaa !3
  %5 = load ptr, ptr %3, align 8
  %6 = load ptr, ptr %4, align 8, !tbaa !3
  %7 = getelementptr inbounds nuw %"class.cv::ml::DTreesImpl", ptr %5, i32 0, i32 1
  %8 = call noundef nonnull align 8 dereferenceable(124) ptr @_ZN2cv2ml10TreeParamsaSERKS1_(ptr noundef nonnull align 8 dereferenceable(124) %7, ptr noundef nonnull align 8 dereferenceable(124) %6)
  ret void
}