; Function Attrs: mustprogress uwtable
define hidden void @_ZN2cv2ml10DTreesImpl10setDParamsERKNS0_10TreeParamsE(ptr noundef nonnull align 8 dereferenceable(448) initializes((8, 11)) %0, ptr noundef nonnull align 8 dereferenceable(124) %1) unnamed_addr #3 align 2 {
  %3 = getelementptr inbounds nuw i8, ptr %0, i64 8
  tail call void @llvm.memcpy.p0.p0.i64(ptr noundef nonnull align 8 dereferenceable(124) %3, ptr noundef nonnull align 8 dereferenceable(124) %1, i64 3, i1 false)
  %4 = getelementptr inbounds nuw i8, ptr %0, i64 16
  %5 = getelementptr inbounds nuw i8, ptr %1, i64 8
  %6 = tail call noundef nonnull align 8 dereferenceable(96) ptr @_ZN2cv3MataSERKS0_(ptr noundef nonnull align 8 dereferenceable(96) %4, ptr noundef nonnull align 8 dereferenceable(96) %5)
  %7 = getelementptr inbounds nuw i8, ptr %0, i64 112
  %8 = getelementptr inbounds nuw i8, ptr %1, i64 104
  tail call void @llvm.memcpy.p0.p0.i64(ptr noundef nonnull align 8 dereferenceable(20) %7, ptr noundef nonnull align 8 dereferenceable(20) %8, i64 20, i1 false)
  ret void
}